target datalayout = "e-m:e-p270:32:32-p271:32:32-p272:64:64-i64:64-i128:128-f80:128-n8:16:32:64-S128"
target triple = "x86_64-pc-linux-gnu"

%struct._GList = type { ptr, ptr, ptr }
%struct._extcap_interface = type { ptr, ptr, ptr, ptr, ptr, i32 }
%struct._extcap_callback_info_t = type { ptr, ptr, ptr, ptr, ptr }

; Function Attrs: null_pointer_is_valid sspstrong uwtable
define internal void @extcap_free_array(ptr noundef %0, i32 noundef %1) #0 {
  %3 = alloca ptr, align 8
  %4 = alloca i32, align 4
  %5 = alloca i32, align 4
  store ptr %0, ptr %3, align 8
  store i32 %1, ptr %4, align 4
  call void @llvm.lifetime.start.p0(i64 4, ptr %5) #9
  store i32 0, ptr %5, align 4
  store i32 0, ptr %5, align 4
  br label %6

6:                                                ; preds = %16, %2
  %7 = load i32, ptr %5, align 4
  %8 = load i32, ptr %4, align 4
  %9 = icmp slt i32 %7, %8
  br i1 %9, label %10, label %19

10:                                               ; preds = %6
  %11 = load ptr, ptr %3, align 8
  %12 = load i32, ptr %5, align 4
  %13 = sext i32 %12 to i64
  %14 = getelementptr ptr, ptr %11, i64 %13
  %15 = load ptr, ptr %14, align 8
  call void @g_free(ptr noundef %15)
  br label %16

16:                                               ; preds = %10
  %17 = load i32, ptr %5, align 4
  %18 = add i32 %17, 1
  store i32 %18, ptr %5, align 4
  br label %6, !llvm.loop !36

19:                                               ; preds = %6
  %20 = load ptr, ptr %3, align 8
  call void @g_free(ptr noundef %20)
  call void @llvm.lifetime.end.p0(i64 4, ptr %5) #9
  ret void
}

; Function Attrs: null_pointer_is_valid sspstrong uwtable
define internal ptr @extcap_convert_arguments_to_array(ptr noundef %0) #0 {
  %2 = alloca ptr, align 8
  %3 = alloca ptr, align 8
  %4 = alloca ptr, align 8
  %5 = alloca i32, align 4
  store ptr %0, ptr %2, align 8
  call void @llvm.lifetime.start.p0(i64 8, ptr %3) #9
  store ptr null, ptr %3, align 8
  %6 = load ptr, ptr %2, align 8
  %7 = icmp ne ptr %6, null
  br i1 %7, label %8, label %40

8:                                                ; preds = %1
  call void @llvm.lifetime.start.p0(i64 8, ptr %4) #9
  %9 = load ptr, ptr %2, align 8
  %10 = call ptr @g_list_first(ptr noundef %9)
  store ptr %10, ptr %4, align 8
  call void @llvm.lifetime.start.p0(i64 4, ptr %5) #9
  store i32 0, ptr %5, align 4
  %11 = load ptr, ptr %2, align 8
  %12 = call i32 @g_list_length(ptr noundef %11)
  %13 = zext i32 %12 to i64
  %14 = mul i64 8, %13
  %15 = call noalias ptr @g_malloc0(i64 noundef %14) #10
  store ptr %15, ptr %3, align 8
  br label %16

16:                                               ; preds = %35, %8
  %17 = load ptr, ptr %4, align 8
  %18 = icmp ne ptr %17, null
  br i1 %18, label %19, label %39

19:                                               ; preds = %16
  %20 = load ptr, ptr %4, align 8
  %21 = getelementptr inbounds nuw %struct._GList, ptr %20, i32 0, i32 0
  %22 = load ptr, ptr %21, align 8
  %23 = call noalias ptr @g_strdup(ptr noundef %22)
  %24 = load ptr, ptr %3, align 8
  %25 = load i32, ptr %5, align 4
  %26 = sext i32 %25 to i64
  %27 = getelementptr ptr, ptr %24, i64 %26
  store ptr %23, ptr %27, align 8
  %28 = load ptr, ptr %4, align 8
  %29 = icmp ne ptr %28, null
  br i1 %29, label %30, label %34

30:                                               ; preds = %19
  %31 = load ptr, ptr %4, align 8
  %32 = getelementptr inbounds nuw %struct._GList, ptr %31, i32 0, i32 1
  %33 = load ptr, ptr %32, align 8
  br label %35

34:                                               ; preds = %19
  br label %35

35:                                               ; preds = %34, %30
  %36 = phi ptr [ %33, %30 ], [ null, %34 ]
  store ptr %36, ptr %4, align 8
  %37 = load i32, ptr %5, align 4
  %38 = add i32 %37, 1
  store i32 %38, ptr %5, align 4
  br label %16, !llvm.loop !35

39:                                               ; preds = %16
  call void @llvm.lifetime.end.p0(i64 4, ptr %5) #9
  call void @llvm.lifetime.end.p0(i64 8, ptr %4) #9
  br label %40

40:                                               ; preds = %39, %1
  %41 = load ptr, ptr %3, align 8
  call void @llvm.lifetime.end.p0(i64 8, ptr %3) #9
  ret ptr %41
}

; Function Attrs: null_pointer_is_valid sspstrong uwtable
define internal void @extcap_run_one(ptr noundef %0, ptr noundef %1, ptr noundef %2, ptr noundef %3, ptr noundef %4) #0 {
  %6 = alloca ptr, align 8
  %7 = alloca ptr, align 8
  %8 = alloca ptr, align 8
  %9 = alloca ptr, align 8
  %10 = alloca ptr, align 8
  %11 = alloca ptr, align 8
  %12 = alloca ptr, align 8
  %13 = alloca i32, align 4
  %14 = alloca ptr, align 8
  %15 = alloca %struct._extcap_callback_info_t, align 8
  store ptr %0, ptr %6, align 8
  store ptr %1, ptr %7, align 8
  store ptr %2, ptr %8, align 8
  store ptr %3, ptr %9, align 8
  store ptr %4, ptr %10, align 8
  call void @llvm.lifetime.start.p0(i64 8, ptr %11) #9
  %16 = call ptr @get_extcap_dir()
  store ptr %16, ptr %11, align 8
  call void @llvm.lifetime.start.p0(i64 8, ptr %12) #9
  %17 = load ptr, ptr %7, align 8
  %18 = call ptr @extcap_convert_arguments_to_array(ptr noundef %17)
  store ptr %18, ptr %12, align 8
  call void @llvm.lifetime.start.p0(i64 4, ptr %13) #9
  %19 = load ptr, ptr %7, align 8
  %20 = call i32 @g_list_length(ptr noundef %19)
  store i32 %20, ptr %13, align 4
  call void @llvm.lifetime.start.p0(i64 8, ptr %14) #9
  %21 = load ptr, ptr %11, align 8
  %22 = load ptr, ptr %6, align 8
  %23 = getelementptr inbounds nuw %struct._extcap_interface, ptr %22, i32 0, i32 4
  %24 = load ptr, ptr %23, align 8
  %25 = load i32, ptr %13, align 4
  %26 = load ptr, ptr %12, align 8
  %27 = call zeroext i1 @ws_pipe_spawn_sync(ptr noundef %21, ptr noundef %24, i32 noundef %25, ptr noundef %26, ptr noundef %14)
  br i1 %27, label %28, label %46

28:                                               ; preds = %5
  call void @llvm.lifetime.start.p0(i64 40, ptr %15) #9
  %29 = getelementptr inbounds nuw %struct._extcap_callback_info_t, ptr %15, i32 0, i32 0
  %30 = load ptr, ptr %6, align 8
  %31 = getelementptr inbounds nuw %struct._extcap_interface, ptr %30, i32 0, i32 4
  %32 = load ptr, ptr %31, align 8
  store ptr %32, ptr %29, align 8
  %33 = getelementptr inbounds nuw %struct._extcap_callback_info_t, ptr %15, i32 0, i32 1
  %34 = load ptr, ptr %6, align 8
  %35 = getelementptr inbounds nuw %struct._extcap_interface, ptr %34, i32 0, i32 0
  %36 = load ptr, ptr %35, align 8
  store ptr %36, ptr %33, align 8
  %37 = getelementptr inbounds nuw %struct._extcap_callback_info_t, ptr %15, i32 0, i32 2
  %38 = load ptr, ptr %14, align 8
  store ptr %38, ptr %37, align 8
  %39 = getelementptr inbounds nuw %struct._extcap_callback_info_t, ptr %15, i32 0, i32 3
  %40 = load ptr, ptr %9, align 8
  store ptr %40, ptr %39, align 8
  %41 = getelementptr inbounds nuw %struct._extcap_callback_info_t, ptr %15, i32 0, i32 4
  %42 = load ptr, ptr %10, align 8
  store ptr %42, ptr %41, align 8
  %43 = load ptr, ptr %8, align 8
  %44 = call zeroext i1 %43(ptr noundef byval(%struct._extcap_callback_info_t) align 8 %15)
  %45 = load ptr, ptr %14, align 8
  call void @g_free(ptr noundef %45)
  call void @llvm.lifetime.end.p0(i64 40, ptr %15) #9
  br label %46

46:                                               ; preds = %28, %5
  %47 = load ptr, ptr %12, align 8
  %48 = load i32, ptr %13, align 4
  call void @extcap_free_array(ptr noundef %47, i32 noundef %48)
  call void @llvm.lifetime.end.p0(i64 8, ptr %14) #9
  call void @llvm.lifetime.end.p0(i64 4, ptr %13) #9
  call void @llvm.lifetime.end.p0(i64 8, ptr %12) #9
  call void @llvm.lifetime.end.p0(i64 8, ptr %11) #9
  ret void
}