; Function Attrs: null_pointer_is_valid sspstrong uwtable
define internal fastcc void @extcap_run_one(ptr noundef nonnull readonly captures(none) %0, ptr noundef %1, ptr noundef readonly captures(none) %2, ptr noundef %3, ptr noundef %4) unnamed_addr #0 {
  %6 = alloca ptr, align 8
  %7 = alloca %struct._extcap_callback_info_t, align 8
  %8 = tail call ptr @get_extcap_dir()
  %.not.i = icmp eq ptr %1, null
  br i1 %.not.i, label %extcap_convert_arguments_to_array.exit, label %9

9:                                                ; preds = %5
  %10 = tail call ptr @g_list_first(ptr noundef nonnull %1)
  %11 = tail call i32 @g_list_length(ptr noundef nonnull %1)
  %12 = zext i32 %11 to i64
  %13 = shl nuw nsw i64 %12, 3
  %14 = tail call noalias ptr @g_malloc0(i64 noundef %13) #11
  %.not1314.i = icmp eq ptr %10, null
  br i1 %.not1314.i, label %extcap_convert_arguments_to_array.exit, label %.lr.ph.i

.lr.ph.i:                                         ; preds = %9, %.lr.ph.i
  %.016.i = phi i32 [ %21, %.lr.ph.i ], [ 0, %9 ]
  %.01015.i = phi ptr [ %20, %.lr.ph.i ], [ %10, %9 ]
  %15 = load ptr, ptr %.01015.i, align 8
  %16 = tail call noalias ptr @g_strdup(ptr noundef %15)
  %17 = sext i32 %.016.i to i64
  %18 = getelementptr ptr, ptr %14, i64 %17
  store ptr %16, ptr %18, align 8
  %19 = getelementptr inbounds nuw i8, ptr %.01015.i, i64 8
  %20 = load ptr, ptr %19, align 8
  %21 = add i32 %.016.i, 1
  %.not13.i = icmp eq ptr %20, null
  br i1 %.not13.i, label %extcap_convert_arguments_to_array.exit, label %.lr.ph.i, !llvm.loop !19

extcap_convert_arguments_to_array.exit:           ; preds = %.lr.ph.i, %5, %9
  %.011.i = phi ptr [ null, %5 ], [ %14, %9 ], [ %14, %.lr.ph.i ]
  %22 = tail call i32 @g_list_length(ptr noundef %1)
  call void @llvm.lifetime.start.p0(i64 8, ptr nonnull %6) #9
  %23 = getelementptr inbounds nuw i8, ptr %0, i64 32
  %24 = load ptr, ptr %23, align 8
  %25 = call zeroext i1 @ws_pipe_spawn_sync(ptr noundef %8, ptr noundef %24, i32 noundef %22, ptr noundef %.011.i, ptr noundef nonnull %6)
  br i1 %25, label %26, label %36

26:                                               ; preds = %extcap_convert_arguments_to_array.exit
  call void @llvm.lifetime.start.p0(i64 40, ptr nonnull %7) #9
  %27 = load ptr, ptr %23, align 8
  store ptr %27, ptr %7, align 8
  %28 = getelementptr inbounds nuw i8, ptr %7, i64 8
  %29 = load ptr, ptr %0, align 8
  store ptr %29, ptr %28, align 8
  %30 = getelementptr inbounds nuw i8, ptr %7, i64 16
  %31 = load ptr, ptr %6, align 8
  store ptr %31, ptr %30, align 8
  %32 = getelementptr inbounds nuw i8, ptr %7, i64 24
  store ptr %3, ptr %32, align 8
  %33 = getelementptr inbounds nuw i8, ptr %7, i64 32
  store ptr %4, ptr %33, align 8
  %34 = call zeroext i1 %2(ptr noundef nonnull byval(%struct._extcap_callback_info_t) align 8 %7), !callees !20
  %35 = load ptr, ptr %6, align 8
  call void @g_free(ptr noundef %35)
  call void @llvm.lifetime.end.p0(i64 40, ptr nonnull %7) #9
  br label %36

36:                                               ; preds = %26, %extcap_convert_arguments_to_array.exit
  %37 = icmp sgt i32 %22, 0
  br i1 %37, label %.lr.ph.preheader.i, label %extcap_free_array.exit

.lr.ph.preheader.i:                               ; preds = %36
  %wide.trip.count.i = zext nneg i32 %22 to i64
  br label %.lr.ph.i12

.lr.ph.i12:                                       ; preds = %.lr.ph.i12, %.lr.ph.preheader.i
  %indvars.iv.i = phi i64 [ 0, %.lr.ph.preheader.i ], [ %indvars.iv.next.i, %.lr.ph.i12 ]
  %38 = getelementptr ptr, ptr %.011.i, i64 %indvars.iv.i
  %39 = load ptr, ptr %38, align 8
  call void @g_free(ptr noundef %39)
  %indvars.iv.next.i = add nuw nsw i64 %indvars.iv.i, 1
  %exitcond.not.i = icmp eq i64 %indvars.iv.next.i, %wide.trip.count.i
  br i1 %exitcond.not.i, label %extcap_free_array.exit, label %.lr.ph.i12, !llvm.loop !21

extcap_free_array.exit:                           ; preds = %.lr.ph.i12, %36
  call void @g_free(ptr noundef %.011.i)
  call void @llvm.lifetime.end.p0(i64 8, ptr nonnull %6) #9
  ret void
}